target datalayout = "e-m:e-p270:32:32-p271:32:32-p272:64:64-i64:64-i128:128-f80:128-n8:16:32:64-S128"
target triple = "x86_64-pc-linux-gnu"

; Function Attrs: nounwind uwtable
define internal void @quant_inter_differences(ptr noundef %0, i32 noundef %1, i32 noundef %2, ptr noundef %3) #0 {
  %5 = alloca ptr, align 8
  %6 = alloca i32, align 4
  %7 = alloca i32, align 4
  %8 = alloca ptr, align 8
  %9 = alloca i32, align 4
  %10 = alloca i32, align 4
  %11 = alloca i32, align 4
  store ptr %0, ptr %5, align 8, !tbaa !3
  store i32 %1, ptr %6, align 4, !tbaa !8
  store i32 %2, ptr %7, align 4, !tbaa !8
  store ptr %3, ptr %8, align 8, !tbaa !3
  call void @llvm.lifetime.start.p0(i64 4, ptr %9) #7
  call void @llvm.lifetime.start.p0(i64 4, ptr %10) #7
  call void @llvm.lifetime.start.p0(i64 4, ptr %11) #7
  store i32 0, ptr %10, align 4, !tbaa !8
  br label %12

12:                                               ; preds = %40, %4
  %13 = load i32, ptr %10, align 4, !tbaa !8
  %14 = load i32, ptr %6, align 4, !tbaa !8
  %15 = icmp slt i32 %13, %14
  br i1 %15, label %16, label %43

16:                                               ; preds = %12
  store i32 0, ptr %11, align 4, !tbaa !8
  br label %17

17:                                               ; preds = %36, %16
  %18 = load i32, ptr %11, align 4, !tbaa !8
  %19 = icmp slt i32 %18, 3
  br i1 %19, label %20, label %39

20:                                               ; preds = %17
  %21 = load ptr, ptr %5, align 8, !tbaa !3
  %22 = load i32, ptr %10, align 4, !tbaa !8
  %23 = mul nsw i32 %22, 3
  %24 = load i32, ptr %11, align 4, !tbaa !8
  %25 = add nsw i32 %23, %24
  %26 = sext i32 %25 to i64
  %27 = getelementptr inbounds i32, ptr %21, i64 %26
  %28 = load i32, ptr %27, align 4, !tbaa !8
  %29 = load ptr, ptr %8, align 8, !tbaa !3
  %30 = load i32, ptr %10, align 4, !tbaa !8
  %31 = mul nsw i32 %30, 3
  %32 = load i32, ptr %11, align 4, !tbaa !8
  %33 = add nsw i32 %31, %32
  %34 = sext i32 %33 to i64
  %35 = getelementptr inbounds i32, ptr %29, i64 %34
  store i32 %28, ptr %35, align 4, !tbaa !8
  br label %36

36:                                               ; preds = %20
  %37 = load i32, ptr %11, align 4, !tbaa !8
  %38 = add nsw i32 %37, 1
  store i32 %38, ptr %11, align 4, !tbaa !8
  br label %17, !llvm.loop !14

39:                                               ; preds = %17
  br label %40

40:                                               ; preds = %39
  %41 = load i32, ptr %10, align 4, !tbaa !8
  %42 = add nsw i32 %41, 1
  store i32 %42, ptr %10, align 4, !tbaa !8
  br label %12, !llvm.loop !16

43:                                               ; preds = %12
  store i32 1, ptr %9, align 4, !tbaa !8
  br label %44

44:                                               ; preds = %106, %43
  %45 = load i32, ptr %9, align 4, !tbaa !8
  %46 = load i32, ptr %7, align 4, !tbaa !8
  %47 = icmp slt i32 %45, %46
  br i1 %47, label %48, label %109

48:                                               ; preds = %44
  store i32 0, ptr %10, align 4, !tbaa !8
  br label %49

49:                                               ; preds = %102, %48
  %50 = load i32, ptr %10, align 4, !tbaa !8
  %51 = load i32, ptr %6, align 4, !tbaa !8
  %52 = icmp slt i32 %50, %51
  br i1 %52, label %53, label %105

53:                                               ; preds = %49
  store i32 0, ptr %11, align 4, !tbaa !8
  br label %54

54:                                               ; preds = %98, %53
  %55 = load i32, ptr %11, align 4, !tbaa !8
  %56 = icmp slt i32 %55, 3
  br i1 %56, label %57, label %101

57:                                               ; preds = %54
  %58 = load ptr, ptr %5, align 8, !tbaa !3
  %59 = load i32, ptr %9, align 4, !tbaa !8
  %60 = load i32, ptr %6, align 4, !tbaa !8
  %61 = mul nsw i32 %59, %60
  %62 = mul nsw i32 %61, 3
  %63 = load i32, ptr %10, align 4, !tbaa !8
  %64 = mul nsw i32 %63, 3
  %65 = add nsw i32 %62, %64
  %66 = load i32, ptr %11, align 4, !tbaa !8
  %67 = add nsw i32 %65, %66
  %68 = sext i32 %67 to i64
  %69 = getelementptr inbounds i32, ptr %58, i64 %68
  %70 = load i32, ptr %69, align 4, !tbaa !8
  %71 = load ptr, ptr %5, align 8, !tbaa !3
  %72 = load i32, ptr %9, align 4, !tbaa !8
  %73 = sub nsw i32 %72, 1
  %74 = load i32, ptr %6, align 4, !tbaa !8
  %75 = mul nsw i32 %73, %74
  %76 = mul nsw i32 %75, 3
  %77 = load i32, ptr %10, align 4, !tbaa !8
  %78 = mul nsw i32 %77, 3
  %79 = add nsw i32 %76, %78
  %80 = load i32, ptr %11, align 4, !tbaa !8
  %81 = add nsw i32 %79, %80
  %82 = sext i32 %81 to i64
  %83 = getelementptr inbounds i32, ptr %71, i64 %82
  %84 = load i32, ptr %83, align 4, !tbaa !8
  %85 = sub nsw i32 %70, %84
  %86 = load ptr, ptr %8, align 8, !tbaa !3
  %87 = load i32, ptr %9, align 4, !tbaa !8
  %88 = load i32, ptr %6, align 4, !tbaa !8
  %89 = mul nsw i32 %87, %88
  %90 = mul nsw i32 %89, 3
  %91 = load i32, ptr %10, align 4, !tbaa !8
  %92 = mul nsw i32 %91, 3
  %93 = add nsw i32 %90, %92
  %94 = load i32, ptr %11, align 4, !tbaa !8
  %95 = add nsw i32 %93, %94
  %96 = sext i32 %95 to i64
  %97 = getelementptr inbounds i32, ptr %86, i64 %96
  store i32 %85, ptr %97, align 4, !tbaa !8
  br label %98

98:                                               ; preds = %57
  %99 = load i32, ptr %11, align 4, !tbaa !8
  %100 = add nsw i32 %99, 1
  store i32 %100, ptr %11, align 4, !tbaa !8
  br label %54, !llvm.loop !17

101:                                              ; preds = %54
  br label %102

102:                                              ; preds = %101
  %103 = load i32, ptr %10, align 4, !tbaa !8
  %104 = add nsw i32 %103, 1
  store i32 %104, ptr %10, align 4, !tbaa !8
  br label %49, !llvm.loop !18

105:                                              ; preds = %49
  br label %106

106:                                              ; preds = %105
  %107 = load i32, ptr %9, align 4, !tbaa !8
  %108 = add nsw i32 %107, 1
  store i32 %108, ptr %9, align 4, !tbaa !8
  br label %44, !llvm.loop !19

109:                                              ; preds = %44
  call void @llvm.lifetime.end.p0(i64 4, ptr %11) #7
  call void @llvm.lifetime.end.p0(i64 4, ptr %10) #7
  call void @llvm.lifetime.end.p0(i64 4, ptr %9) #7
  ret void
}

; Function Attrs: nounwind uwtable
define ptr @tng_compress_vel_int(ptr noundef %0, i32 noundef %1, i32 noundef %2, i64 noundef %3, i64 noundef %4, i32 noundef %5, ptr noundef %6, ptr noundef %7) #0 {
  %9 = alloca ptr, align 8
  %10 = alloca i32, align 4
  %11 = alloca i32, align 4
  %12 = alloca i64, align 8
  %13 = alloca i64, align 8
  %14 = alloca i32, align 4
  %15 = alloca ptr, align 8
  %16 = alloca ptr, align 8
  %17 = alloca ptr, align 8
  %18 = alloca ptr, align 8
  %19 = alloca ptr, align 8
  %20 = alloca i32, align 4
  %21 = alloca i32, align 4
  %22 = alloca i32, align 4
  %23 = alloca i32, align 4
  store ptr %0, ptr %9, align 8, !tbaa !3
  store i32 %1, ptr %10, align 4, !tbaa !8
  store i32 %2, ptr %11, align 4, !tbaa !8
  store i64 %3, ptr %12, align 8, !tbaa !10
  store i64 %4, ptr %13, align 8, !tbaa !10
  store i32 %5, ptr %14, align 4, !tbaa !8
  store ptr %6, ptr %15, align 8, !tbaa !3
  store ptr %7, ptr %16, align 8, !tbaa !3
  call void @llvm.lifetime.start.p0(i64 8, ptr %17) #7
  %24 = load i32, ptr %10, align 4, !tbaa !8
  %25 = load i32, ptr %11, align 4, !tbaa !8
  %26 = mul nsw i32 %24, %25
  %27 = mul nsw i32 %26, 14
  %28 = add nsw i32 %27, 44
  %29 = sext i32 %28 to i64
  %30 = call noalias ptr @malloc(i64 noundef %29) #8
  store ptr %30, ptr %17, align 8, !tbaa !12
  call void @llvm.lifetime.start.p0(i64 8, ptr %18) #7
  %31 = load ptr, ptr %9, align 8, !tbaa !3
  store ptr %31, ptr %18, align 8, !tbaa !3
  call void @llvm.lifetime.start.p0(i64 8, ptr %19) #7
  %32 = load i32, ptr %10, align 4, !tbaa !8
  %33 = load i32, ptr %11, align 4, !tbaa !8
  %34 = mul nsw i32 %32, %33
  %35 = mul nsw i32 %34, 3
  %36 = sext i32 %35 to i64
  %37 = mul i64 %36, 4
  %38 = call noalias ptr @malloc(i64 noundef %37) #8
  store ptr %38, ptr %19, align 8, !tbaa !3
  call void @llvm.lifetime.start.p0(i64 4, ptr %20) #7
  call void @llvm.lifetime.start.p0(i64 4, ptr %21) #7
  call void @llvm.lifetime.start.p0(i64 4, ptr %22) #7
  call void @llvm.lifetime.start.p0(i64 4, ptr %23) #7
  %39 = load i32, ptr %14, align 4, !tbaa !8
  %40 = icmp eq i32 %39, 0
  br i1 %40, label %41, label %42

41:                                               ; preds = %8
  store i32 2, ptr %14, align 4, !tbaa !8
  br label %42

42:                                               ; preds = %41, %8
  %43 = load i32, ptr %14, align 4, !tbaa !8
  %44 = icmp slt i32 %43, 1
  br i1 %44, label %45, label %46

45:                                               ; preds = %42
  store i32 1, ptr %14, align 4, !tbaa !8
  br label %46

46:                                               ; preds = %45, %42
  %47 = load i32, ptr %14, align 4, !tbaa !8
  %48 = icmp sgt i32 %47, 6
  br i1 %48, label %49, label %50

49:                                               ; preds = %46
  store i32 6, ptr %14, align 4, !tbaa !8
  br label %50

50:                                               ; preds = %49, %46
  %51 = load ptr, ptr %15, align 8, !tbaa !3
  %52 = getelementptr inbounds i32, ptr %51, i64 0
  %53 = load i32, ptr %52, align 4, !tbaa !8
  store i32 %53, ptr %20, align 4, !tbaa !8
  %54 = load ptr, ptr %15, align 8, !tbaa !3
  %55 = getelementptr inbounds i32, ptr %54, i64 1
  %56 = load i32, ptr %55, align 4, !tbaa !8
  store i32 %56, ptr %21, align 4, !tbaa !8
  %57 = load ptr, ptr %15, align 8, !tbaa !3
  %58 = getelementptr inbounds i32, ptr %57, i64 2
  %59 = load i32, ptr %58, align 4, !tbaa !8
  store i32 %59, ptr %22, align 4, !tbaa !8
  %60 = load ptr, ptr %15, align 8, !tbaa !3
  %61 = getelementptr inbounds i32, ptr %60, i64 3
  %62 = load i32, ptr %61, align 4, !tbaa !8
  store i32 %62, ptr %23, align 4, !tbaa !8
  %63 = load ptr, ptr %18, align 8, !tbaa !3
  %64 = load i32, ptr %10, align 4, !tbaa !8
  %65 = load i32, ptr %11, align 4, !tbaa !8
  %66 = load ptr, ptr %19, align 8, !tbaa !3
  call void @quant_inter_differences(ptr noundef %63, i32 noundef %64, i32 noundef %65, ptr noundef %66)
  %67 = load i32, ptr %20, align 4, !tbaa !8
  %68 = icmp eq i32 %67, -1
  br i1 %68, label %69, label %75

69:                                               ; preds = %50
  store i32 -1, ptr %21, align 4, !tbaa !8
  %70 = load ptr, ptr %18, align 8, !tbaa !3
  %71 = load i32, ptr %10, align 4, !tbaa !8
  %72 = load i32, ptr %14, align 4, !tbaa !8
  %73 = load i64, ptr %12, align 8, !tbaa !10
  %74 = load i64, ptr %13, align 8, !tbaa !10
  call void @determine_best_vel_initial_coding(ptr noundef %70, i32 noundef %71, i32 noundef %72, i64 noundef %73, i64 noundef %74, ptr noundef %20, ptr noundef %21)
  br label %85

75:                                               ; preds = %50
  %76 = load i32, ptr %21, align 4, !tbaa !8
  %77 = icmp eq i32 %76, -1
  br i1 %77, label %78, label %84

78:                                               ; preds = %75
  %79 = load ptr, ptr %18, align 8, !tbaa !3
  %80 = load i32, ptr %10, align 4, !tbaa !8
  %81 = load i32, ptr %14, align 4, !tbaa !8
  %82 = load i64, ptr %12, align 8, !tbaa !10
  %83 = load i64, ptr %13, align 8, !tbaa !10
  call void @determine_best_vel_initial_coding(ptr noundef %79, i32 noundef %80, i32 noundef %81, i64 noundef %82, i64 noundef %83, ptr noundef %20, ptr noundef %21)
  br label %84

84:                                               ; preds = %78, %75
  br label %85

85:                                               ; preds = %84, %69
  %86 = load i32, ptr %11, align 4, !tbaa !8
  %87 = icmp eq i32 %86, 1
  br i1 %87, label %88, label %89

88:                                               ; preds = %85
  store i32 0, ptr %22, align 4, !tbaa !8
  store i32 0, ptr %23, align 4, !tbaa !8
  br label %89

89:                                               ; preds = %88, %85
  %90 = load i32, ptr %11, align 4, !tbaa !8
  %91 = icmp sgt i32 %90, 1
  br i1 %91, label %92, label %116

92:                                               ; preds = %89
  %93 = load i32, ptr %22, align 4, !tbaa !8
  %94 = icmp eq i32 %93, -1
  br i1 %94, label %95, label %103

95:                                               ; preds = %92
  store i32 -1, ptr %23, align 4, !tbaa !8
  %96 = load ptr, ptr %18, align 8, !tbaa !3
  %97 = load ptr, ptr %19, align 8, !tbaa !3
  %98 = load i32, ptr %10, align 4, !tbaa !8
  %99 = load i32, ptr %11, align 4, !tbaa !8
  %100 = load i32, ptr %14, align 4, !tbaa !8
  %101 = load i64, ptr %12, align 8, !tbaa !10
  %102 = load i64, ptr %13, align 8, !tbaa !10
  call void @determine_best_vel_coding(ptr noundef %96, ptr noundef %97, i32 noundef %98, i32 noundef %99, i32 noundef %100, i64 noundef %101, i64 noundef %102, ptr noundef %22, ptr noundef %23)
  br label %115

103:                                              ; preds = %92
  %104 = load i32, ptr %23, align 4, !tbaa !8
  %105 = icmp eq i32 %104, -1
  br i1 %105, label %106, label %114

106:                                              ; preds = %103
  %107 = load ptr, ptr %18, align 8, !tbaa !3
  %108 = load ptr, ptr %19, align 8, !tbaa !3
  %109 = load i32, ptr %10, align 4, !tbaa !8
  %110 = load i32, ptr %11, align 4, !tbaa !8
  %111 = load i32, ptr %14, align 4, !tbaa !8
  %112 = load i64, ptr %12, align 8, !tbaa !10
  %113 = load i64, ptr %13, align 8, !tbaa !10
  call void @determine_best_vel_coding(ptr noundef %107, ptr noundef %108, i32 noundef %109, i32 noundef %110, i32 noundef %111, i64 noundef %112, i64 noundef %113, ptr noundef %22, ptr noundef %23)
  br label %114

114:                                              ; preds = %106, %103
  br label %115

115:                                              ; preds = %114, %95
  br label %116

116:                                              ; preds = %115, %89
  %117 = load ptr, ptr %18, align 8, !tbaa !3
  %118 = load ptr, ptr %19, align 8, !tbaa !3
  %119 = load i32, ptr %10, align 4, !tbaa !8
  %120 = load i32, ptr %11, align 4, !tbaa !8
  %121 = load i32, ptr %14, align 4, !tbaa !8
  %122 = load i32, ptr %20, align 4, !tbaa !8
  %123 = load i32, ptr %21, align 4, !tbaa !8
  %124 = load i32, ptr %22, align 4, !tbaa !8
  %125 = load i32, ptr %23, align 4, !tbaa !8
  %126 = load i64, ptr %12, align 8, !tbaa !10
  %127 = load i64, ptr %13, align 8, !tbaa !10
  %128 = load ptr, ptr %16, align 8, !tbaa !3
  %129 = load ptr, ptr %17, align 8, !tbaa !12
  call void @compress_quantized_vel(ptr noundef %117, ptr noundef %118, i32 noundef %119, i32 noundef %120, i32 noundef %121, i32 noundef %122, i32 noundef %123, i32 noundef %124, i32 noundef %125, i64 noundef %126, i64 noundef %127, ptr noundef %128, ptr noundef %129)
  %130 = load ptr, ptr %19, align 8, !tbaa !3
  call void @free(ptr noundef %130) #7
  %131 = load ptr, ptr %15, align 8, !tbaa !3
  %132 = getelementptr inbounds i32, ptr %131, i64 0
  %133 = load i32, ptr %132, align 4, !tbaa !8
  %134 = icmp eq i32 %133, -1
  br i1 %134, label %135, label %139

135:                                              ; preds = %116
  %136 = load i32, ptr %20, align 4, !tbaa !8
  %137 = load ptr, ptr %15, align 8, !tbaa !3
  %138 = getelementptr inbounds i32, ptr %137, i64 0
  store i32 %136, ptr %138, align 4, !tbaa !8
  br label %139

139:                                              ; preds = %135, %116
  %140 = load ptr, ptr %15, align 8, !tbaa !3
  %141 = getelementptr inbounds i32, ptr %140, i64 1
  %142 = load i32, ptr %141, align 4, !tbaa !8
  %143 = icmp eq i32 %142, -1
  br i1 %143, label %144, label %148

144:                                              ; preds = %139
  %145 = load i32, ptr %21, align 4, !tbaa !8
  %146 = load ptr, ptr %15, align 8, !tbaa !3
  %147 = getelementptr inbounds i32, ptr %146, i64 1
  store i32 %145, ptr %147, align 4, !tbaa !8
  br label %148

148:                                              ; preds = %144, %139
  %149 = load ptr, ptr %15, align 8, !tbaa !3
  %150 = getelementptr inbounds i32, ptr %149, i64 2
  %151 = load i32, ptr %150, align 4, !tbaa !8
  %152 = icmp eq i32 %151, -1
  br i1 %152, label %153, label %157

153:                                              ; preds = %148
  %154 = load i32, ptr %22, align 4, !tbaa !8
  %155 = load ptr, ptr %15, align 8, !tbaa !3
  %156 = getelementptr inbounds i32, ptr %155, i64 2
  store i32 %154, ptr %156, align 4, !tbaa !8
  br label %157

157:                                              ; preds = %153, %148
  %158 = load ptr, ptr %15, align 8, !tbaa !3
  %159 = getelementptr inbounds i32, ptr %158, i64 3
  %160 = load i32, ptr %159, align 4, !tbaa !8
  %161 = icmp eq i32 %160, -1
  br i1 %161, label %162, label %166

162:                                              ; preds = %157
  %163 = load i32, ptr %23, align 4, !tbaa !8
  %164 = load ptr, ptr %15, align 8, !tbaa !3
  %165 = getelementptr inbounds i32, ptr %164, i64 3
  store i32 %163, ptr %165, align 4, !tbaa !8
  br label %166

166:                                              ; preds = %162, %157
  %167 = load ptr, ptr %17, align 8, !tbaa !12
  call void @llvm.lifetime.end.p0(i64 4, ptr %23) #7
  call void @llvm.lifetime.end.p0(i64 4, ptr %22) #7
  call void @llvm.lifetime.end.p0(i64 4, ptr %21) #7
  call void @llvm.lifetime.end.p0(i64 4, ptr %20) #7
  call void @llvm.lifetime.end.p0(i64 8, ptr %19) #7
  call void @llvm.lifetime.end.p0(i64 8, ptr %18) #7
  call void @llvm.lifetime.end.p0(i64 8, ptr %17) #7
  ret ptr %167
}