; Function Attrs: nounwind uwtable
define noundef ptr @tng_compress_vel_int(ptr noundef %0, i32 noundef %1, i32 noundef %2, i64 noundef %3, i64 noundef %4, i32 noundef %5, ptr noundef captures(none) %6, ptr noundef writeonly captures(none) %7) local_unnamed_addr #0 {
  %9 = alloca i32, align 4
  %10 = alloca i32, align 4
  %11 = alloca i32, align 4
  %12 = alloca i32, align 4
  %13 = mul nsw i32 %2, %1
  %14 = mul nsw i32 %13, 14
  %15 = add nsw i32 %14, 44
  %16 = sext i32 %15 to i64
  %17 = tail call noalias ptr @malloc(i64 noundef %16) #12
  %18 = mul nsw i32 %13, 3
  %19 = sext i32 %18 to i64
  %20 = shl nsw i64 %19, 2
  %21 = tail call noalias ptr @malloc(i64 noundef %20) #12
  call void @llvm.lifetime.start.p0(i64 4, ptr nonnull %9) #13
  call void @llvm.lifetime.start.p0(i64 4, ptr nonnull %10) #13
  call void @llvm.lifetime.start.p0(i64 4, ptr nonnull %11) #13
  call void @llvm.lifetime.start.p0(i64 4, ptr nonnull %12) #13
  %22 = icmp eq i32 %5, 0
  %23 = tail call i32 @llvm.smax.i32(i32 %5, i32 1)
  %24 = tail call i32 @llvm.umin.i32(i32 %23, i32 6)
  %spec.store.select1 = select i1 %22, i32 2, i32 %24
  %25 = load i32, ptr %6, align 4, !tbaa !3
  store i32 %25, ptr %9, align 4, !tbaa !3
  %26 = getelementptr inbounds nuw i8, ptr %6, i64 4
  %27 = load i32, ptr %26, align 4, !tbaa !3
  store i32 %27, ptr %10, align 4, !tbaa !3
  %28 = getelementptr inbounds nuw i8, ptr %6, i64 8
  %29 = load i32, ptr %28, align 4, !tbaa !3
  store i32 %29, ptr %11, align 4, !tbaa !3
  %30 = getelementptr inbounds nuw i8, ptr %6, i64 12
  %31 = load i32, ptr %30, align 4, !tbaa !3
  store i32 %31, ptr %12, align 4, !tbaa !3
  %32 = icmp sgt i32 %1, 0
  br i1 %32, label %.preheader39.preheader.i, label %quant_inter_differences.exit

.preheader39.preheader.i:                         ; preds = %8
  %wide.trip.count.i = zext nneg i32 %1 to i64
  %33 = mul nuw nsw i64 %wide.trip.count.i, 12
  tail call void @llvm.memcpy.p0.p0.i64(ptr align 4 %21, ptr align 4 %0, i64 %33, i1 false), !tbaa !3
  %34 = icmp slt i32 %2, 2
  br i1 %34, label %quant_inter_differences.exit, label %.preheader37.us.preheader.i

.preheader37.us.preheader.i:                      ; preds = %.preheader39.preheader.i
  %wide.trip.count65.i = zext nneg i32 %2 to i64
  br label %.preheader37.us.i

.preheader37.us.i:                                ; preds = %._crit_edge.us.i, %.preheader37.us.preheader.i
  %indvars.iv62.i = phi i64 [ 1, %.preheader37.us.preheader.i ], [ %indvars.iv.next63.i, %._crit_edge.us.i ]
  %35 = mul nuw nsw i64 %indvars.iv62.i, %wide.trip.count.i
  %36 = trunc i64 %indvars.iv62.i to i32
  %37 = add i32 %36, -1
  %38 = mul i32 %37, %1
  br label %.preheader.us.i

39:                                               ; preds = %40
  %indvars.iv.next58.i = add nuw nsw i64 %indvars.iv57.i, 1
  %exitcond61.not.i = icmp eq i64 %indvars.iv.next58.i, %wide.trip.count.i
  br i1 %exitcond61.not.i, label %._crit_edge.us.i, label %.preheader.us.i, !llvm.loop !7

40:                                               ; preds = %.preheader.us.i, %40
  %indvars.iv53.i = phi i64 [ 0, %.preheader.us.i ], [ %indvars.iv.next54.i, %40 ]
  %41 = add nsw i64 %indvars.iv53.i, %51
  %42 = getelementptr inbounds i32, ptr %0, i64 %41
  %43 = load i32, ptr %42, align 4, !tbaa !3
  %gep.i = getelementptr i32, ptr %invariant.gep.i, i64 %indvars.iv53.i
  %44 = load i32, ptr %gep.i, align 4, !tbaa !3
  %45 = sub nsw i32 %43, %44
  %46 = getelementptr inbounds i32, ptr %21, i64 %41
  store i32 %45, ptr %46, align 4, !tbaa !3
  %indvars.iv.next54.i = add nuw nsw i64 %indvars.iv53.i, 1
  %exitcond56.not.i = icmp eq i64 %indvars.iv.next54.i, 3
  br i1 %exitcond56.not.i, label %39, label %40, !llvm.loop !9

.preheader.us.i:                                  ; preds = %39, %.preheader37.us.i
  %indvars.iv57.i = phi i64 [ 0, %.preheader37.us.i ], [ %indvars.iv.next58.i, %39 ]
  %47 = add nuw nsw i64 %indvars.iv57.i, %35
  %48 = trunc nuw nsw i64 %indvars.iv57.i to i32
  %49 = add i32 %38, %48
  %50 = mul i32 %49, 3
  %sext.i = mul i64 %47, 12884901888
  %51 = ashr exact i64 %sext.i, 32
  %52 = sext i32 %50 to i64
  %invariant.gep.i = getelementptr i32, ptr %0, i64 %52
  br label %40

._crit_edge.us.i:                                 ; preds = %39
  %indvars.iv.next63.i = add nuw nsw i64 %indvars.iv62.i, 1
  %exitcond66.not.i = icmp eq i64 %indvars.iv.next63.i, %wide.trip.count65.i
  br i1 %exitcond66.not.i, label %quant_inter_differences.exit, label %.preheader37.us.i, !llvm.loop !10

quant_inter_differences.exit:                     ; preds = %._crit_edge.us.i, %8, %.preheader39.preheader.i
  %53 = icmp eq i32 %25, -1
  br i1 %53, label %54, label %55

54:                                               ; preds = %quant_inter_differences.exit
  store i32 -1, ptr %10, align 4, !tbaa !3
  br label %.sink.split

55:                                               ; preds = %quant_inter_differences.exit
  %56 = icmp eq i32 %27, -1
  br i1 %56, label %.sink.split, label %57

.sink.split:                                      ; preds = %55, %54
  call fastcc void @determine_best_vel_initial_coding(ptr noundef %0, i32 noundef %1, i32 noundef %spec.store.select1, ptr noundef %9, ptr noundef %10)
  br label %57

57:                                               ; preds = %.sink.split, %55
  %58 = icmp eq i32 %2, 1
  br i1 %58, label %.thread, label %59

.thread:                                          ; preds = %57
  store i32 0, ptr %11, align 4, !tbaa !3
  store i32 0, ptr %12, align 4, !tbaa !3
  br label %67

59:                                               ; preds = %57
  %60 = icmp sgt i32 %2, 1
  br i1 %60, label %61, label %67

61:                                               ; preds = %59
  %62 = icmp eq i32 %29, -1
  br i1 %62, label %63, label %64

63:                                               ; preds = %61
  store i32 -1, ptr %12, align 4, !tbaa !3
  call fastcc void @determine_best_vel_coding(ptr noundef %0, ptr noundef %21, i32 noundef %1, i32 noundef %2, i32 noundef %spec.store.select1, i64 noundef %3, i64 noundef %4, ptr noundef %11, ptr noundef %12)
  br label %67

64:                                               ; preds = %61
  %65 = icmp eq i32 %31, -1
  br i1 %65, label %66, label %67

66:                                               ; preds = %64
  call fastcc void @determine_best_vel_coding(ptr noundef %0, ptr noundef %21, i32 noundef %1, i32 noundef %2, i32 noundef %spec.store.select1, i64 noundef %3, i64 noundef %4, ptr noundef %11, ptr noundef %12)
  br label %67

67:                                               ; preds = %.thread, %63, %66, %64, %59
  %68 = load i32, ptr %9, align 4, !tbaa !3
  %69 = load i32, ptr %10, align 4, !tbaa !3
  %70 = load i32, ptr %11, align 4, !tbaa !3
  %71 = load i32, ptr %12, align 4, !tbaa !3
  tail call fastcc void @compress_quantized_vel(ptr noundef %0, ptr noundef %21, i32 noundef %1, i32 noundef %2, i32 noundef %spec.store.select1, i32 noundef %68, i32 noundef %69, i32 noundef %70, i32 noundef %71, i64 noundef %3, i64 noundef %4, ptr noundef %7, ptr noundef %17)
  tail call void @free(ptr noundef %21) #13
  %72 = load i32, ptr %6, align 4, !tbaa !3
  %73 = icmp eq i32 %72, -1
  br i1 %73, label %74, label %75

74:                                               ; preds = %67
  store i32 %68, ptr %6, align 4, !tbaa !3
  br label %75

75:                                               ; preds = %74, %67
  %76 = load i32, ptr %26, align 4, !tbaa !3
  %77 = icmp eq i32 %76, -1
  br i1 %77, label %78, label %79

78:                                               ; preds = %75
  store i32 %69, ptr %26, align 4, !tbaa !3
  br label %79

79:                                               ; preds = %78, %75
  %80 = load i32, ptr %28, align 4, !tbaa !3
  %81 = icmp eq i32 %80, -1
  br i1 %81, label %82, label %83

82:                                               ; preds = %79
  store i32 %70, ptr %28, align 4, !tbaa !3
  br label %83

83:                                               ; preds = %82, %79
  %84 = load i32, ptr %30, align 4, !tbaa !3
  %85 = icmp eq i32 %84, -1
  br i1 %85, label %86, label %87

86:                                               ; preds = %83
  store i32 %71, ptr %30, align 4, !tbaa !3
  br label %87

87:                                               ; preds = %86, %83
  call void @llvm.lifetime.end.p0(i64 4, ptr nonnull %12) #13
  call void @llvm.lifetime.end.p0(i64 4, ptr nonnull %11) #13
  call void @llvm.lifetime.end.p0(i64 4, ptr nonnull %10) #13
  call void @llvm.lifetime.end.p0(i64 4, ptr nonnull %9) #13
  ret ptr %17
}